; Function Attrs: nounwind uwtable
define internal i32 @ilbc_read_packet(ptr noundef readonly captures(none) %0, ptr noundef %1) #1 {
  %3 = getelementptr inbounds nuw i8, ptr %0, i64 48
  %4 = load ptr, ptr %3, align 8, !tbaa !44
  %5 = load ptr, ptr %4, align 8, !tbaa !45
  %6 = getelementptr inbounds nuw i8, ptr %5, i64 16
  %7 = load ptr, ptr %6, align 8, !tbaa !26
  %8 = getelementptr inbounds nuw i8, ptr %0, i64 32
  %9 = load ptr, ptr %8, align 8, !tbaa !11
  %10 = getelementptr inbounds nuw i8, ptr %7, i64 156
  %11 = load i32, ptr %10, align 4, !tbaa !42
  %12 = tail call i32 @av_get_packet(ptr noundef %9, ptr noundef %1, i32 noundef %11) #5
  %13 = load i32, ptr %10, align 4, !tbaa !42
  %.not = icmp eq i32 %12, %13
  br i1 %.not, label %17, label %14

14:                                               ; preds = %2
  %15 = icmp slt i32 %12, 0
  %16 = select i1 %15, i32 %12, i32 -1094995529
  br label %22

17:                                               ; preds = %2
  %18 = getelementptr inbounds nuw i8, ptr %1, i64 36
  store i32 0, ptr %18, align 4, !tbaa !47
  %19 = icmp eq i32 %12, 38
  %20 = select i1 %19, i64 160, i64 240
  %21 = getelementptr inbounds nuw i8, ptr %1, i64 64
  store i64 %20, ptr %21, align 8, !tbaa !48
  br label %22

22:                                               ; preds = %17, %14
  %.0 = phi i32 [ %16, %14 ], [ 0, %17 ]
  ret i32 %.0
}